; Function Attrs: mustprogress uwtable
define void @_ZN3gmx20AnalysisNeighborhood9setCutoffEf(ptr noundef nonnull readonly align 8 captures(none) dereferenceable(8) %0, float noundef %1) local_unnamed_addr #16 align 2 {
  %3 = load ptr, ptr %0, align 8, !tbaa !216
  %4 = getelementptr inbounds nuw i8, ptr %3, i64 40
  %5 = load ptr, ptr %4, align 8, !tbaa !185
  %6 = getelementptr inbounds nuw i8, ptr %3, i64 48
  %7 = load ptr, ptr %6, align 8, !tbaa !185
  %8 = icmp eq ptr %5, %7
  br i1 %8, label %10, label %9

9:                                                ; preds = %2
  tail call void @_ZN3gmx8internal13assertHandlerEPKcS2_S2_S2_i(ptr noundef nonnull @.str.16, ptr noundef nonnull @.str.17, ptr noundef nonnull @"__PRETTY_FUNCTION__._ZZN3gmx20AnalysisNeighborhood9setCutoffEfENK3$_0clEv", ptr noundef nonnull @.str.4, i32 noundef 1309) #40
  unreachable

10:                                               ; preds = %2
  %11 = getelementptr inbounds nuw i8, ptr %3, i64 64
  store float %1, ptr %11, align 8, !tbaa !190
  ret void
}